(lp0
S'bays29'
p1
aS'att48'
p2
aS'kroC100'
p3
aS'pr107'
p4
aS'bier127'
p5
aS'kroB200'
p6
aS'lin318'
p7
aS'pr439'
p8
a.(lp0
I29
aI48
aI100
aI107
aI127
aI200
aI318
aI439
a.(lp0
F0.7248919010162354
aF3.926071882247925
aF7.1263368129730225
aF7.30127477645874
aF11.628782033920288
aF30.134578943252563
aF106.77512788772583
aF128.14515614509583
a.