(lp0
S'bays29'
p1
aS'att48'
p2
aS'kroC100'
p3
aS'pr107'
p4
aS'bier127'
p5
aS'kroB200'
p6
aS'lin318'
p7
aS'pr439'
p8
a.(lp0
I29
aI48
aI100
aI107
aI127
aI200
aI318
aI439
a.(lp0
F0.7235860824584961
aF1.809412956237793
aF0.062229156494140625
aF7.805634021759033
aF12.484673976898193
aF32.34712195396423
aF80.82783603668213
aF131.43438982963562
a.