(lp0
I29
aI48
aI100
aI127
aI200
aI318
aI439
aI1002
aI4461
a.(lp0
F0.6219320297241211
aF2.9125900268554688
aF1.686525821685791
aF2.3836259841918945
aF5.585350036621094
aF13.652997016906738
aF25.894399881362915
aF156.21760296821594
aF3393.12225484848
a.(lp0
S'bays29'
p1
aS'att48'
p2
aS'kroc100'
p3
aS'bier127'
p4
aS'kroB200'
p5
aS'lin318'
p6
aS'pr439'
p7
aS'pr1002'
p8
aS'fnl4461'
p9
a.