(lp0
I29
aI48
aI100
aI127
aI200
aI318
aI439
aI1002
aI4461
a.(lp0
F9.65690302848816
aF17.4041268825531
aF58.317874908447266
aF92.50660705566406
aF228.64612483978271
aF535.0907130241394
aF988.4412999153137
aF4800.626702070236
aF106881.03232192993
a.(lp0
S'bays29'
p1
aS'att48'
p2
aS'kroc100'
p3
aS'bier127'
p4
aS'kroB200'
p5
aS'lin318'
p6
aS'pr439'
p7
aS'pr1002'
p8
aS'fnl4461'
p9
a.